target datalayout = "e-m:e-p270:32:32-p271:32:32-p272:64:64-i64:64-i128:128-f80:128-n8:16:32:64-S128"
target triple = "x86_64-pc-linux-gnu"

%struct.dt_masks_form_t = type { ptr, i32, ptr, [2 x float], [128 x i8], i32, i32 }
%struct._GList = type { ptr, ptr, ptr }
%struct.dt_masks_point_group_t = type { i32, i32, i32, float }

; Function Attrs: nounwind uwtable
define internal void @_group_duplicate_points(ptr noundef %0, ptr noundef %1, ptr noundef %2) #0 {
  %4 = alloca ptr, align 8
  %5 = alloca ptr, align 8
  %6 = alloca ptr, align 8
  %7 = alloca ptr, align 8
  %8 = alloca ptr, align 8
  %9 = alloca ptr, align 8
  store ptr %0, ptr %4, align 8, !tbaa !88
  store ptr %1, ptr %5, align 8, !tbaa !13
  store ptr %2, ptr %6, align 8, !tbaa !13
  call void @llvm.lifetime.start.p0(i64 8, ptr %7) #10
  %10 = load ptr, ptr %5, align 8, !tbaa !13
  %11 = getelementptr inbounds nuw %struct.dt_masks_form_t, ptr %10, i32 0, i32 0
  %12 = load ptr, ptr %11, align 8, !tbaa !19
  store ptr %12, ptr %7, align 8, !tbaa !23
  br label %13

13:                                               ; preds = %59, %3
  %14 = load ptr, ptr %7, align 8, !tbaa !23
  %15 = icmp ne ptr %14, null
  br i1 %15, label %17, label %16

16:                                               ; preds = %13
  call void @llvm.lifetime.end.p0(i64 8, ptr %7) #10
  br label %61

17:                                               ; preds = %13
  call void @llvm.lifetime.start.p0(i64 8, ptr %8) #10
  %18 = load ptr, ptr %7, align 8, !tbaa !23
  %19 = getelementptr inbounds nuw %struct._GList, ptr %18, i32 0, i32 0
  %20 = load ptr, ptr %19, align 8, !tbaa !24
  store ptr %20, ptr %8, align 8, !tbaa !26
  call void @llvm.lifetime.start.p0(i64 8, ptr %9) #10
  %21 = call noalias ptr @malloc(i64 noundef 16) #11
  store ptr %21, ptr %9, align 8, !tbaa !26
  %22 = load ptr, ptr %4, align 8, !tbaa !88
  %23 = load ptr, ptr %8, align 8, !tbaa !26
  %24 = getelementptr inbounds nuw %struct.dt_masks_point_group_t, ptr %23, i32 0, i32 0
  %25 = load i32, ptr %24, align 4, !tbaa !65
  %26 = call i32 @dt_masks_form_duplicate(ptr noundef %22, i32 noundef %25)
  %27 = load ptr, ptr %9, align 8, !tbaa !26
  %28 = getelementptr inbounds nuw %struct.dt_masks_point_group_t, ptr %27, i32 0, i32 0
  store i32 %26, ptr %28, align 4, !tbaa !65
  %29 = load ptr, ptr %6, align 8, !tbaa !13
  %30 = getelementptr inbounds nuw %struct.dt_masks_form_t, ptr %29, i32 0, i32 5
  %31 = load i32, ptr %30, align 8, !tbaa !89
  %32 = load ptr, ptr %9, align 8, !tbaa !26
  %33 = getelementptr inbounds nuw %struct.dt_masks_point_group_t, ptr %32, i32 0, i32 1
  store i32 %31, ptr %33, align 4, !tbaa !90
  %34 = load ptr, ptr %8, align 8, !tbaa !26
  %35 = getelementptr inbounds nuw %struct.dt_masks_point_group_t, ptr %34, i32 0, i32 2
  %36 = load i32, ptr %35, align 4, !tbaa !91
  %37 = load ptr, ptr %9, align 8, !tbaa !26
  %38 = getelementptr inbounds nuw %struct.dt_masks_point_group_t, ptr %37, i32 0, i32 2
  store i32 %36, ptr %38, align 4, !tbaa !91
  %39 = load ptr, ptr %8, align 8, !tbaa !26
  %40 = getelementptr inbounds nuw %struct.dt_masks_point_group_t, ptr %39, i32 0, i32 3
  %41 = load float, ptr %40, align 4, !tbaa !92
  %42 = load ptr, ptr %9, align 8, !tbaa !26
  %43 = getelementptr inbounds nuw %struct.dt_masks_point_group_t, ptr %42, i32 0, i32 3
  store float %41, ptr %43, align 4, !tbaa !92
  %44 = load ptr, ptr %6, align 8, !tbaa !13
  %45 = getelementptr inbounds nuw %struct.dt_masks_form_t, ptr %44, i32 0, i32 0
  %46 = load ptr, ptr %45, align 8, !tbaa !19
  %47 = load ptr, ptr %9, align 8, !tbaa !26
  %48 = call ptr @g_list_append(ptr noundef %46, ptr noundef %47)
  %49 = load ptr, ptr %6, align 8, !tbaa !13
  %50 = getelementptr inbounds nuw %struct.dt_masks_form_t, ptr %49, i32 0, i32 0
  store ptr %48, ptr %50, align 8, !tbaa !19
  call void @llvm.lifetime.end.p0(i64 8, ptr %9) #10
  call void @llvm.lifetime.end.p0(i64 8, ptr %8) #10
  br label %51

51:                                               ; preds = %17
  %52 = load ptr, ptr %7, align 8, !tbaa !23
  %53 = icmp ne ptr %52, null
  br i1 %53, label %54, label %58

54:                                               ; preds = %51
  %55 = load ptr, ptr %7, align 8, !tbaa !23
  %56 = getelementptr inbounds nuw %struct._GList, ptr %55, i32 0, i32 1
  %57 = load ptr, ptr %56, align 8, !tbaa !70
  br label %59

58:                                               ; preds = %51
  br label %59

59:                                               ; preds = %58, %54
  %60 = phi ptr [ %57, %54 ], [ null, %58 ]
  store ptr %60, ptr %7, align 8, !tbaa !23
  br label %13

61:                                               ; preds = %16
  ret void
}