; Function Attrs: nounwind uwtable
define internal void @_group_duplicate_points(ptr noundef %0, ptr noundef readonly captures(none) %1, ptr noundef captures(none) %2) #0 {
  %.017 = load ptr, ptr %1, align 8, !tbaa !6
  %.not18 = icmp eq ptr %.017, null
  br i1 %.not18, label %._crit_edge, label %.lr.ph

.lr.ph:                                           ; preds = %3
  %4 = getelementptr inbounds nuw i8, ptr %2, i64 160
  br label %5

._crit_edge:                                      ; preds = %5, %3
  ret void

5:                                                ; preds = %.lr.ph, %5
  %.019 = phi ptr [ %.017, %.lr.ph ], [ %.0, %5 ]
  %6 = load ptr, ptr %.019, align 8, !tbaa !11
  %7 = tail call noalias dereferenceable_or_null(16) ptr @malloc(i64 noundef 16) #13
  %8 = load i32, ptr %6, align 4, !tbaa !51
  %9 = tail call i32 @dt_masks_form_duplicate(ptr noundef %0, i32 noundef %8) #12
  store i32 %9, ptr %7, align 4, !tbaa !51
  %10 = load i32, ptr %4, align 8, !tbaa !67
  %11 = getelementptr inbounds nuw i8, ptr %7, i64 4
  store i32 %10, ptr %11, align 4, !tbaa !68
  %12 = getelementptr inbounds nuw i8, ptr %6, i64 8
  %13 = load i32, ptr %12, align 4, !tbaa !69
  %14 = getelementptr inbounds nuw i8, ptr %7, i64 8
  store i32 %13, ptr %14, align 4, !tbaa !69
  %15 = getelementptr inbounds nuw i8, ptr %6, i64 12
  %16 = load float, ptr %15, align 4, !tbaa !70
  %17 = getelementptr inbounds nuw i8, ptr %7, i64 12
  store float %16, ptr %17, align 4, !tbaa !70
  %18 = load ptr, ptr %2, align 8, !tbaa !59
  %19 = tail call ptr @g_list_append(ptr noundef %18, ptr noundef nonnull %7) #12
  store ptr %19, ptr %2, align 8, !tbaa !59
  %20 = getelementptr inbounds nuw i8, ptr %.019, i64 8
  %.0 = load ptr, ptr %20, align 8, !tbaa !6
  %.not = icmp eq ptr %.0, null
  br i1 %.not, label %._crit_edge, label %5
}